(dp0
S'end_date'
p1
S'01/01/2016'
p2
sS'input_file'
p3
S'symbols.txt'
p4
sS'output_directory'
p5
S'fetched_data/'
p6
sS'proxy_port'
p7
I3128
sS'proxy_address'
p8
S'proxy21.iitd.ernet.in'
p9
sS'start_date'
p10
S'01/01/2000'
p11
s.